target datalayout = "e-m:e-p270:32:32-p271:32:32-p272:64:64-i64:64-i128:128-f80:128-n8:16:32:64-S128"
target triple = "x86_64-pc-linux-gnu"

@.str.148 = private unnamed_addr constant [33 x i8] c"Unknown kind \22%s\22 passed to %s()\00", align 1

; Function Attrs: nounwind uwtable
define internal i32 @toKind(ptr noundef %0, ptr noundef %1) #0 {
  %3 = alloca ptr, align 8
  %4 = alloca ptr, align 8
  %5 = alloca i32, align 4
  store ptr %0, ptr %3, align 8, !tbaa !7
  store ptr %1, ptr %4, align 8, !tbaa !7
  call void @llvm.lifetime.start.p0(i64 4, ptr %5) #16
  %6 = load ptr, ptr %3, align 8, !tbaa !7
  %7 = load i8, ptr %6, align 1, !tbaa !97
  %8 = sext i8 %7 to i32
  switch i32 %8, label %12 [
    i32 71, label %9
    i32 69, label %10
    i32 78, label %11
  ]

9:                                                ; preds = %2
  store i32 0, ptr %5, align 4, !tbaa !26
  br label %15

10:                                               ; preds = %2
  store i32 2, ptr %5, align 4, !tbaa !26
  br label %15

11:                                               ; preds = %2
  store i32 1, ptr %5, align 4, !tbaa !26
  br label %15

12:                                               ; preds = %2
  %13 = load ptr, ptr %3, align 8, !tbaa !7
  %14 = load ptr, ptr %4, align 8, !tbaa !7
  call void (ptr, ...) @exerror(ptr noundef @.str.148, ptr noundef %13, ptr noundef %14)
  store i32 0, ptr %5, align 4, !tbaa !26
  br label %15

15:                                               ; preds = %12, %11, %10, %9
  %16 = load i32, ptr %5, align 4, !tbaa !26
  call void @llvm.lifetime.end.p0(i64 4, ptr %5) #16
  ret i32 %16
}