; Function Attrs: nounwind uwtable
define internal fastcc range(i32 0, 3) i32 @toKind(ptr noundef nonnull %0, ptr noundef %1) unnamed_addr #0 {
  %3 = load i8, ptr %0, align 1, !tbaa !65
  switch i8 %3, label %6 [
    i8 71, label %7
    i8 69, label %4
    i8 78, label %5
  ]

4:                                                ; preds = %2
  br label %7

5:                                                ; preds = %2
  br label %7

6:                                                ; preds = %2
  tail call void (ptr, ...) @exerror(ptr noundef nonnull @.str.148, ptr noundef nonnull %0, ptr noundef %1) #25
  br label %7

7:                                                ; preds = %2, %6, %5, %4
  %.0 = phi i32 [ 0, %6 ], [ 1, %5 ], [ 2, %4 ], [ 0, %2 ]
  ret i32 %.0
}